; Function Attrs: mustprogress nounwind uwtable
define dso_local void @_ZN4llvm18DILexicalBlockBaseC2ERNS_11LLVMContextEjNS_8Metadata11StorageTypeENS_8ArrayRefIPS3_EE(ptr noundef nonnull align 8 dereferenceable(16) %0, ptr noundef nonnull align 8 dereferenceable(8) %1, i32 noundef %2, i32 noundef %3, ptr %4, i64 %5) unnamed_addr #0 align 2 {
  %7 = alloca %"class.llvm::ArrayRef", align 8
  call void @llvm.lifetime.start.p0(i64 16, ptr nonnull %7)
  call void @llvm.memset.p0.i64(ptr noundef nonnull align 8 dereferenceable(16) %7, i8 0, i64 16, i1 false)
  tail call void @_ZN4llvm6MDNodeC2ERNS_11LLVMContextEjNS_8Metadata11StorageTypeENS_8ArrayRefIPS3_EES7_(ptr noundef nonnull align 8 dereferenceable(16) %0, ptr noundef nonnull align 8 dereferenceable(8) %1, i32 noundef %2, i32 noundef %3, ptr %4, i64 %5, ptr noundef nonnull byval(%"class.llvm::ArrayRef") align 8 %7) #24
  %8 = getelementptr inbounds nuw i8, ptr %0, i64 2
  store i16 11, ptr %8, align 2
  call void @llvm.lifetime.end.p0(i64 16, ptr nonnull %7)
  ret void
}